target datalayout = "e-m:e-p270:32:32-p271:32:32-p272:64:64-i64:64-i128:128-f80:128-n8:16:32:64-S128"
target triple = "x86_64-pc-linux-gnu"

%"class.std::vector" = type { %"struct.std::_Vector_base" }
%"struct.std::_Vector_base" = type { %"struct.std::_Vector_base<int, std::allocator<int>>::_Vector_impl" }
%"struct.std::_Vector_base<int, std::allocator<int>>::_Vector_impl" = type { %"struct.std::_Vector_base<int, std::allocator<int>>::_Vector_impl_data" }
%"struct.std::_Vector_base<int, std::allocator<int>>::_Vector_impl_data" = type { ptr, ptr, ptr }
%"class.LightGBM::RecursiveHalvingMap" = type { i32, i32, i8, i32, %"class.std::vector", %"class.std::vector", %"class.std::vector", %"class.std::vector", %"class.std::vector" }
%"class.std::unique_ptr" = type { %"struct.std::__uniq_ptr_data" }
%"struct.std::__uniq_ptr_data" = type { %"class.std::__uniq_ptr_impl" }
%"class.std::__uniq_ptr_impl" = type { %"class.std::tuple" }
%"class.std::tuple" = type { %"struct.std::_Tuple_impl" }
%"struct.std::_Tuple_impl" = type { %"struct.std::_Head_base.1" }
%"struct.std::_Head_base.1" = type { ptr }

@_ZN8LightGBM7Network13num_machines_E = thread_local global i32 1, align 4
@_ZN8LightGBM7Network5rank_E = thread_local global i32 0, align 4
@_ZN8LightGBM7Network8linkers_E = thread_local global { { { ptr } } } zeroinitializer, align 8
@_ZN8LightGBM7Network22recursive_halving_map_E = thread_local global %"class.LightGBM::RecursiveHalvingMap" zeroinitializer, align 8
@_ZN8LightGBM7Network23reduce_scatter_ext_fun_E = thread_local global ptr null, align 8
@.str.13 = private unnamed_addr constant [46 x i8] c"Please initialize the network interface first\00", align 1
@_ZTHN8LightGBM7Network8linkers_E = alias void (), ptr @__tls_init
@_ZTHN8LightGBM7Network22recursive_halving_map_E = alias void (), ptr @__tls_init

; Function Attrs: mustprogress nounwind uwtable
define linkonce_odr noundef nonnull align 8 dereferenceable(8) ptr @_ZNSt10_Head_baseILm0EPN8LightGBM7LinkersELb0EE7_M_headERKS3_(ptr noundef nonnull align 8 dereferenceable(8) %0) #4 comdat align 2 {
  %2 = alloca ptr, align 8
  store ptr %0, ptr %2, align 8, !tbaa !22
  %3 = load ptr, ptr %2, align 8, !tbaa !22
  %4 = getelementptr inbounds nuw %"struct.std::_Head_base.1", ptr %3, i32 0, i32 0
  ret ptr %4
}

; Function Attrs: mustprogress nounwind uwtable
define linkonce_odr noundef nonnull align 8 dereferenceable(8) ptr @_ZNSt11_Tuple_implILm0EJPN8LightGBM7LinkersESt14default_deleteIS1_EEE7_M_headERKS5_(ptr noundef nonnull align 8 dereferenceable(8) %0) #4 comdat align 2 {
  %2 = alloca ptr, align 8
  store ptr %0, ptr %2, align 8, !tbaa !20
  %3 = load ptr, ptr %2, align 8, !tbaa !20
  %4 = call noundef nonnull align 8 dereferenceable(8) ptr @_ZNSt10_Head_baseILm0EPN8LightGBM7LinkersELb0EE7_M_headERKS3_(ptr noundef nonnull align 8 dereferenceable(8) %3) #3
  ret ptr %4
}

; Function Attrs: mustprogress nounwind uwtable
define linkonce_odr noundef nonnull align 8 dereferenceable(8) ptr @_ZSt12__get_helperILm0EPN8LightGBM7LinkersEJSt14default_deleteIS1_EEERKT0_RKSt11_Tuple_implIXT_EJS5_DpT1_EE(ptr noundef nonnull align 8 dereferenceable(8) %0) #4 comdat {
  %2 = alloca ptr, align 8
  store ptr %0, ptr %2, align 8, !tbaa !20
  %3 = load ptr, ptr %2, align 8, !tbaa !20
  %4 = call noundef nonnull align 8 dereferenceable(8) ptr @_ZNSt11_Tuple_implILm0EJPN8LightGBM7LinkersESt14default_deleteIS1_EEE7_M_headERKS5_(ptr noundef nonnull align 8 dereferenceable(8) %3) #3
  ret ptr %4
}

; Function Attrs: mustprogress nounwind uwtable
define linkonce_odr noundef nonnull align 8 dereferenceable(8) ptr @_ZSt3getILm0EJPN8LightGBM7LinkersESt14default_deleteIS1_EEERKNSt13tuple_elementIXT_ESt5tupleIJDpT0_EEE4typeERKS9_(ptr noundef nonnull align 8 dereferenceable(8) %0) #4 comdat {
  %2 = alloca ptr, align 8
  store ptr %0, ptr %2, align 8, !tbaa !18
  %3 = load ptr, ptr %2, align 8, !tbaa !18
  %4 = call noundef nonnull align 8 dereferenceable(8) ptr @_ZSt12__get_helperILm0EPN8LightGBM7LinkersEJSt14default_deleteIS1_EEERKT0_RKSt11_Tuple_implIXT_EJS5_DpT1_EE(ptr noundef nonnull align 8 dereferenceable(8) %3) #3
  ret ptr %4
}

; Function Attrs: mustprogress nounwind uwtable
define linkonce_odr noundef ptr @_ZNKSt15__uniq_ptr_implIN8LightGBM7LinkersESt14default_deleteIS1_EE6_M_ptrEv(ptr noundef nonnull align 8 dereferenceable(8) %0) #4 comdat align 2 {
  %2 = alloca ptr, align 8
  store ptr %0, ptr %2, align 8, !tbaa !14
  %3 = load ptr, ptr %2, align 8
  %4 = getelementptr inbounds nuw %"class.std::__uniq_ptr_impl", ptr %3, i32 0, i32 0
  %5 = call noundef nonnull align 8 dereferenceable(8) ptr @_ZSt3getILm0EJPN8LightGBM7LinkersESt14default_deleteIS1_EEERKNSt13tuple_elementIXT_ESt5tupleIJDpT0_EEE4typeERKS9_(ptr noundef nonnull align 8 dereferenceable(8) %4) #3
  %6 = load ptr, ptr %5, align 8, !tbaa !12
  ret ptr %6
}

; Function Attrs: mustprogress nounwind uwtable
define linkonce_odr noundef ptr @_ZNKSt10unique_ptrIN8LightGBM7LinkersESt14default_deleteIS1_EE3getEv(ptr noundef nonnull align 8 dereferenceable(8) %0) #4 comdat align 2 {
  %2 = alloca ptr, align 8
  store ptr %0, ptr %2, align 8, !tbaa !4
  %3 = load ptr, ptr %2, align 8
  %4 = getelementptr inbounds nuw %"class.std::unique_ptr", ptr %3, i32 0, i32 0
  %5 = call noundef ptr @_ZNKSt15__uniq_ptr_implIN8LightGBM7LinkersESt14default_deleteIS1_EE6_M_ptrEv(ptr noundef nonnull align 8 dereferenceable(8) %4) #3
  ret ptr %5
}

; Function Attrs: mustprogress nounwind uwtable
define linkonce_odr noundef ptr @_ZNKSt10unique_ptrIN8LightGBM7LinkersESt14default_deleteIS1_EEptEv(ptr noundef nonnull align 8 dereferenceable(8) %0) #4 comdat align 2 {
  %2 = alloca ptr, align 8
  store ptr %0, ptr %2, align 8, !tbaa !4
  %3 = load ptr, ptr %2, align 8
  %4 = call noundef ptr @_ZNKSt10unique_ptrIN8LightGBM7LinkersESt14default_deleteIS1_EE3getEv(ptr noundef nonnull align 8 dereferenceable(8) %3) #3
  ret ptr %4
}

; Function Attrs: uwtable
define weak_odr hidden noundef ptr @_ZTWN8LightGBM7Network8linkers_E() #11 comdat {
  call void @_ZTHN8LightGBM7Network8linkers_E()
  %1 = call align 8 ptr @llvm.threadlocal.address.p0(ptr align 8 @_ZN8LightGBM7Network8linkers_E)
  ret ptr %1
}

; Function Attrs: mustprogress uwtable
define void @_ZN8LightGBM7Network17ReduceScatterRingEPciiPKiS3_S1_iRKPFvPKcS1_iiE(ptr noundef %0, i32 noundef %1, i32 noundef %2, ptr noundef %3, ptr noundef %4, ptr noundef %5, i32 noundef %6, ptr noundef nonnull align 8 dereferenceable(8) %7) #10 align 2 {
  %9 = alloca ptr, align 8
  %10 = alloca i32, align 4
  %11 = alloca i32, align 4
  %12 = alloca ptr, align 8
  %13 = alloca ptr, align 8
  %14 = alloca ptr, align 8
  %15 = alloca i32, align 4
  %16 = alloca ptr, align 8
  %17 = alloca i32, align 4
  %18 = alloca i32, align 4
  %19 = alloca i32, align 4
  %20 = alloca i32, align 4
  %21 = alloca i32, align 4
  store ptr %0, ptr %9, align 8, !tbaa !65
  store i32 %1, ptr %10, align 4, !tbaa !104
  store i32 %2, ptr %11, align 4, !tbaa !104
  store ptr %3, ptr %12, align 8, !tbaa !36
  store ptr %4, ptr %13, align 8, !tbaa !36
  store ptr %5, ptr %14, align 8, !tbaa !65
  store i32 %6, ptr %15, align 4, !tbaa !104
  store ptr %7, ptr %16, align 8, !tbaa !316
  call void @llvm.lifetime.start.p0(i64 4, ptr %17) #3
  %22 = call align 4 ptr @llvm.threadlocal.address.p0(ptr align 4 @_ZN8LightGBM7Network5rank_E)
  %23 = load i32, ptr %22, align 4, !tbaa !104
  %24 = add nsw i32 %23, 1
  %25 = call align 4 ptr @llvm.threadlocal.address.p0(ptr align 4 @_ZN8LightGBM7Network13num_machines_E)
  %26 = load i32, ptr %25, align 4, !tbaa !104
  %27 = srem i32 %24, %26
  store i32 %27, ptr %17, align 4, !tbaa !104
  call void @llvm.lifetime.start.p0(i64 4, ptr %18) #3
  %28 = call align 4 ptr @llvm.threadlocal.address.p0(ptr align 4 @_ZN8LightGBM7Network5rank_E)
  %29 = load i32, ptr %28, align 4, !tbaa !104
  %30 = sub nsw i32 %29, 1
  %31 = call align 4 ptr @llvm.threadlocal.address.p0(ptr align 4 @_ZN8LightGBM7Network13num_machines_E)
  %32 = load i32, ptr %31, align 4, !tbaa !104
  %33 = add nsw i32 %30, %32
  %34 = call align 4 ptr @llvm.threadlocal.address.p0(ptr align 4 @_ZN8LightGBM7Network13num_machines_E)
  %35 = load i32, ptr %34, align 4, !tbaa !104
  %36 = srem i32 %33, %35
  store i32 %36, ptr %18, align 4, !tbaa !104
  call void @llvm.lifetime.start.p0(i64 4, ptr %19) #3
  %37 = load i32, ptr %18, align 4, !tbaa !104
  store i32 %37, ptr %19, align 4, !tbaa !104
  call void @llvm.lifetime.start.p0(i64 4, ptr %20) #3
  %38 = load i32, ptr %18, align 4, !tbaa !104
  %39 = sub nsw i32 %38, 1
  %40 = call align 4 ptr @llvm.threadlocal.address.p0(ptr align 4 @_ZN8LightGBM7Network13num_machines_E)
  %41 = load i32, ptr %40, align 4, !tbaa !104
  %42 = add nsw i32 %39, %41
  %43 = call align 4 ptr @llvm.threadlocal.address.p0(ptr align 4 @_ZN8LightGBM7Network13num_machines_E)
  %44 = load i32, ptr %43, align 4, !tbaa !104
  %45 = srem i32 %42, %44
  store i32 %45, ptr %20, align 4, !tbaa !104
  call void @llvm.lifetime.start.p0(i64 4, ptr %21) #3
  store i32 1, ptr %21, align 4, !tbaa !104
  br label %46

46:                                               ; preds = %109, %8
  %47 = load i32, ptr %21, align 4, !tbaa !104
  %48 = call align 4 ptr @llvm.threadlocal.address.p0(ptr align 4 @_ZN8LightGBM7Network13num_machines_E)
  %49 = load i32, ptr %48, align 4, !tbaa !104
  %50 = icmp slt i32 %47, %49
  br i1 %50, label %52, label %51

51:                                               ; preds = %46
  call void @llvm.lifetime.end.p0(i64 4, ptr %21) #3
  br label %112

52:                                               ; preds = %46
  %53 = call ptr @_ZTWN8LightGBM7Network8linkers_E()
  %54 = call noundef ptr @_ZNKSt10unique_ptrIN8LightGBM7LinkersESt14default_deleteIS1_EEptEv(ptr noundef nonnull align 8 dereferenceable(8) %53) #3
  %55 = load i32, ptr %17, align 4, !tbaa !104
  %56 = load ptr, ptr %9, align 8, !tbaa !65
  %57 = load ptr, ptr %12, align 8, !tbaa !36
  %58 = load i32, ptr %19, align 4, !tbaa !104
  %59 = sext i32 %58 to i64
  %60 = getelementptr inbounds i32, ptr %57, i64 %59
  %61 = load i32, ptr %60, align 4, !tbaa !104
  %62 = sext i32 %61 to i64
  %63 = getelementptr inbounds i8, ptr %56, i64 %62
  %64 = load ptr, ptr %13, align 8, !tbaa !36
  %65 = load i32, ptr %19, align 4, !tbaa !104
  %66 = sext i32 %65 to i64
  %67 = getelementptr inbounds i32, ptr %64, i64 %66
  %68 = load i32, ptr %67, align 4, !tbaa !104
  %69 = load i32, ptr %18, align 4, !tbaa !104
  %70 = load ptr, ptr %14, align 8, !tbaa !65
  %71 = load ptr, ptr %13, align 8, !tbaa !36
  %72 = load i32, ptr %20, align 4, !tbaa !104
  %73 = sext i32 %72 to i64
  %74 = getelementptr inbounds i32, ptr %71, i64 %73
  %75 = load i32, ptr %74, align 4, !tbaa !104
  call void @_ZN8LightGBM7Linkers8SendRecvEiPciiS1_i(ptr noundef nonnull align 8 dereferenceable(304) %54, i32 noundef %55, ptr noundef %63, i32 noundef %68, i32 noundef %69, ptr noundef %70, i32 noundef %75)
  %76 = load ptr, ptr %16, align 8, !tbaa !316
  %77 = load ptr, ptr %76, align 8, !tbaa !177
  %78 = load ptr, ptr %14, align 8, !tbaa !65
  %79 = load ptr, ptr %9, align 8, !tbaa !65
  %80 = load ptr, ptr %12, align 8, !tbaa !36
  %81 = load i32, ptr %20, align 4, !tbaa !104
  %82 = sext i32 %81 to i64
  %83 = getelementptr inbounds i32, ptr %80, i64 %82
  %84 = load i32, ptr %83, align 4, !tbaa !104
  %85 = sext i32 %84 to i64
  %86 = getelementptr inbounds i8, ptr %79, i64 %85
  %87 = load i32, ptr %11, align 4, !tbaa !104
  %88 = load ptr, ptr %13, align 8, !tbaa !36
  %89 = load i32, ptr %20, align 4, !tbaa !104
  %90 = sext i32 %89 to i64
  %91 = getelementptr inbounds i32, ptr %88, i64 %90
  %92 = load i32, ptr %91, align 4, !tbaa !104
  call void %77(ptr noundef %78, ptr noundef %86, i32 noundef %87, i32 noundef %92)
  %93 = load i32, ptr %19, align 4, !tbaa !104
  %94 = sub nsw i32 %93, 1
  %95 = call align 4 ptr @llvm.threadlocal.address.p0(ptr align 4 @_ZN8LightGBM7Network13num_machines_E)
  %96 = load i32, ptr %95, align 4, !tbaa !104
  %97 = add nsw i32 %94, %96
  %98 = call align 4 ptr @llvm.threadlocal.address.p0(ptr align 4 @_ZN8LightGBM7Network13num_machines_E)
  %99 = load i32, ptr %98, align 4, !tbaa !104
  %100 = srem i32 %97, %99
  store i32 %100, ptr %19, align 4, !tbaa !104
  %101 = load i32, ptr %20, align 4, !tbaa !104
  %102 = sub nsw i32 %101, 1
  %103 = call align 4 ptr @llvm.threadlocal.address.p0(ptr align 4 @_ZN8LightGBM7Network13num_machines_E)
  %104 = load i32, ptr %103, align 4, !tbaa !104
  %105 = add nsw i32 %102, %104
  %106 = call align 4 ptr @llvm.threadlocal.address.p0(ptr align 4 @_ZN8LightGBM7Network13num_machines_E)
  %107 = load i32, ptr %106, align 4, !tbaa !104
  %108 = srem i32 %105, %107
  store i32 %108, ptr %20, align 4, !tbaa !104
  br label %109

109:                                              ; preds = %52
  %110 = load i32, ptr %21, align 4, !tbaa !104
  %111 = add nsw i32 %110, 1
  store i32 %111, ptr %21, align 4, !tbaa !104
  br label %46, !llvm.loop !406

112:                                              ; preds = %51
  %113 = load ptr, ptr %14, align 8, !tbaa !65
  %114 = load ptr, ptr %9, align 8, !tbaa !65
  %115 = load ptr, ptr %12, align 8, !tbaa !36
  %116 = call align 4 ptr @llvm.threadlocal.address.p0(ptr align 4 @_ZN8LightGBM7Network5rank_E)
  %117 = load i32, ptr %116, align 4, !tbaa !104
  %118 = sext i32 %117 to i64
  %119 = getelementptr inbounds i32, ptr %115, i64 %118
  %120 = load i32, ptr %119, align 4, !tbaa !104
  %121 = sext i32 %120 to i64
  %122 = getelementptr inbounds i8, ptr %114, i64 %121
  %123 = load ptr, ptr %13, align 8, !tbaa !36
  %124 = call align 4 ptr @llvm.threadlocal.address.p0(ptr align 4 @_ZN8LightGBM7Network5rank_E)
  %125 = load i32, ptr %124, align 4, !tbaa !104
  %126 = sext i32 %125 to i64
  %127 = getelementptr inbounds i32, ptr %123, i64 %126
  %128 = load i32, ptr %127, align 4, !tbaa !104
  %129 = sext i32 %128 to i64
  call void @llvm.memcpy.p0.p0.i64(ptr align 1 %113, ptr align 1 %122, i64 %129, i1 false)
  call void @llvm.lifetime.end.p0(i64 4, ptr %20) #3
  call void @llvm.lifetime.end.p0(i64 4, ptr %19) #3
  call void @llvm.lifetime.end.p0(i64 4, ptr %18) #3
  call void @llvm.lifetime.end.p0(i64 4, ptr %17) #3
  ret void
}

; Function Attrs: uwtable
define weak_odr hidden noundef ptr @_ZTWN8LightGBM7Network22recursive_halving_map_E() #11 comdat {
  call void @_ZTHN8LightGBM7Network22recursive_halving_map_E()
  %1 = call align 8 ptr @llvm.threadlocal.address.p0(ptr align 8 @_ZN8LightGBM7Network22recursive_halving_map_E)
  ret ptr %1
}

; Function Attrs: mustprogress uwtable
define void @_ZN8LightGBM7Network13ReduceScatterEPciiPKiS3_S1_iRKPFvPKcS1_iiE(ptr noundef %0, i32 noundef %1, i32 noundef %2, ptr noundef %3, ptr noundef %4, ptr noundef %5, i32 noundef %6, ptr noundef nonnull align 8 dereferenceable(8) %7) #10 align 2 {
  %9 = alloca ptr, align 8
  %10 = alloca i32, align 4
  %11 = alloca i32, align 4
  %12 = alloca ptr, align 8
  %13 = alloca ptr, align 8
  %14 = alloca ptr, align 8
  %15 = alloca i32, align 4
  %16 = alloca ptr, align 8
  %17 = alloca i32, align 4
  store ptr %0, ptr %9, align 8, !tbaa !65
  store i32 %1, ptr %10, align 4, !tbaa !104
  store i32 %2, ptr %11, align 4, !tbaa !104
  store ptr %3, ptr %12, align 8, !tbaa !36
  store ptr %4, ptr %13, align 8, !tbaa !36
  store ptr %5, ptr %14, align 8, !tbaa !65
  store i32 %6, ptr %15, align 4, !tbaa !104
  store ptr %7, ptr %16, align 8, !tbaa !316
  %18 = call align 4 ptr @llvm.threadlocal.address.p0(ptr align 4 @_ZN8LightGBM7Network13num_machines_E)
  %19 = load i32, ptr %18, align 4, !tbaa !104
  %20 = icmp sle i32 %19, 1
  br i1 %20, label %21, label %22

21:                                               ; preds = %8
  call void (ptr, ...) @_ZN8LightGBM3Log5FatalEPKcz(ptr noundef @.str.13)
  br label %22

22:                                               ; preds = %21, %8
  %23 = call align 8 ptr @llvm.threadlocal.address.p0(ptr align 8 @_ZN8LightGBM7Network23reduce_scatter_ext_fun_E)
  %24 = load ptr, ptr %23, align 8, !tbaa !177
  %25 = icmp ne ptr %24, null
  br i1 %25, label %26, label %39

26:                                               ; preds = %22
  %27 = call align 8 ptr @llvm.threadlocal.address.p0(ptr align 8 @_ZN8LightGBM7Network23reduce_scatter_ext_fun_E)
  %28 = load ptr, ptr %27, align 8, !tbaa !177
  %29 = load ptr, ptr %9, align 8, !tbaa !65
  %30 = load i32, ptr %10, align 4, !tbaa !104
  %31 = load i32, ptr %11, align 4, !tbaa !104
  %32 = load ptr, ptr %12, align 8, !tbaa !36
  %33 = load ptr, ptr %13, align 8, !tbaa !36
  %34 = call align 4 ptr @llvm.threadlocal.address.p0(ptr align 4 @_ZN8LightGBM7Network13num_machines_E)
  %35 = load i32, ptr %34, align 4, !tbaa !104
  %36 = load ptr, ptr %14, align 8, !tbaa !65
  %37 = load i32, ptr %15, align 4, !tbaa !104
  %38 = load ptr, ptr %16, align 8, !tbaa !316
  call void %28(ptr noundef %29, i32 noundef %30, i32 noundef %31, ptr noundef %32, ptr noundef %33, i32 noundef %35, ptr noundef %36, i32 noundef %37, ptr noundef nonnull align 8 dereferenceable(8) %38)
  br label %66

39:                                               ; preds = %22
  call void @llvm.lifetime.start.p0(i64 4, ptr %17) #3
  store i32 10485760, ptr %17, align 4, !tbaa !104
  %40 = call ptr @_ZTWN8LightGBM7Network22recursive_halving_map_E()
  %41 = getelementptr inbounds nuw %"class.LightGBM::RecursiveHalvingMap", ptr %40, i32 0, i32 2
  %42 = load i8, ptr %41, align 8, !tbaa !320, !range !321, !noundef !322
  %43 = trunc i8 %42 to i1
  br i1 %43, label %47, label %44

44:                                               ; preds = %39
  %45 = load i32, ptr %10, align 4, !tbaa !104
  %46 = icmp slt i32 %45, 10485760
  br i1 %46, label %47, label %56

47:                                               ; preds = %44, %39
  %48 = load ptr, ptr %9, align 8, !tbaa !65
  %49 = load i32, ptr %10, align 4, !tbaa !104
  %50 = load i32, ptr %11, align 4, !tbaa !104
  %51 = load ptr, ptr %12, align 8, !tbaa !36
  %52 = load ptr, ptr %13, align 8, !tbaa !36
  %53 = load ptr, ptr %14, align 8, !tbaa !65
  %54 = load i32, ptr %15, align 4, !tbaa !104
  %55 = load ptr, ptr %16, align 8, !tbaa !316
  call void @_ZN8LightGBM7Network29ReduceScatterRecursiveHalvingEPciiPKiS3_S1_iRKPFvPKcS1_iiE(ptr noundef %48, i32 noundef %49, i32 noundef %50, ptr noundef %51, ptr noundef %52, ptr noundef %53, i32 noundef %54, ptr noundef nonnull align 8 dereferenceable(8) %55)
  br label %65

56:                                               ; preds = %44
  %57 = load ptr, ptr %9, align 8, !tbaa !65
  %58 = load i32, ptr %10, align 4, !tbaa !104
  %59 = load i32, ptr %11, align 4, !tbaa !104
  %60 = load ptr, ptr %12, align 8, !tbaa !36
  %61 = load ptr, ptr %13, align 8, !tbaa !36
  %62 = load ptr, ptr %14, align 8, !tbaa !65
  %63 = load i32, ptr %15, align 4, !tbaa !104
  %64 = load ptr, ptr %16, align 8, !tbaa !316
  call void @_ZN8LightGBM7Network17ReduceScatterRingEPciiPKiS3_S1_iRKPFvPKcS1_iiE(ptr noundef %57, i32 noundef %58, i32 noundef %59, ptr noundef %60, ptr noundef %61, ptr noundef %62, i32 noundef %63, ptr noundef nonnull align 8 dereferenceable(8) %64)
  br label %65

65:                                               ; preds = %56, %47
  call void @llvm.lifetime.end.p0(i64 4, ptr %17) #3
  br label %66

66:                                               ; preds = %65, %26
  ret void
}