; Function Attrs: uwtable
define void @_ZN8LightGBM7Network13ReduceScatterEPciiPKiS3_S1_iRKPFvPKcS1_iiE(ptr noundef %0, i32 noundef %1, i32 noundef %2, ptr noundef %3, ptr noundef %4, ptr noundef %5, i32 noundef %6, ptr noundef nonnull align 8 dereferenceable(8) %7) local_unnamed_addr #11 align 2 {
  %9 = tail call align 4 ptr @llvm.threadlocal.address.p0(ptr align 4 @_ZN8LightGBM7Network13num_machines_E)
  %10 = load i32, ptr %9, align 4, !tbaa !69
  %11 = icmp slt i32 %10, 2
  br i1 %11, label %12, label %13

12:                                               ; preds = %8
  tail call void (ptr, ...) @_ZN8LightGBM3Log5FatalEPKcz(ptr noundef nonnull @.str.13)
  br label %13

13:                                               ; preds = %12, %8
  %14 = tail call align 8 ptr @llvm.threadlocal.address.p0(ptr align 8 @_ZN8LightGBM7Network23reduce_scatter_ext_fun_E)
  %15 = load ptr, ptr %14, align 8, !tbaa !119
  %.not = icmp eq ptr %15, null
  br i1 %.not, label %18, label %16

16:                                               ; preds = %13
  %17 = load i32, ptr %9, align 4, !tbaa !69
  tail call void %15(ptr noundef %0, i32 noundef %1, i32 noundef %2, ptr noundef %3, ptr noundef %4, i32 noundef %17, ptr noundef %5, i32 noundef %6, ptr noundef nonnull align 8 dereferenceable(8) %7)
  br label %73

18:                                               ; preds = %13
  tail call void @_ZTHN8LightGBM7Network22recursive_halving_map_E()
  %19 = tail call noundef align 8 ptr @llvm.threadlocal.address.p0(ptr align 8 @_ZN8LightGBM7Network22recursive_halving_map_E)
  %20 = getelementptr inbounds nuw i8, ptr %19, i64 8
  %21 = load i8, ptr %20, align 8, !tbaa !129, !range !130, !noundef !131
  %22 = trunc nuw i8 %21 to i1
  %23 = icmp slt i32 %1, 10485760
  %or.cond = or i1 %23, %22
  br i1 %or.cond, label %24, label %25

24:                                               ; preds = %18
  tail call void @_ZN8LightGBM7Network29ReduceScatterRecursiveHalvingEPciiPKiS3_S1_iRKPFvPKcS1_iiE(ptr noundef %0, i32 noundef %1, i32 noundef %2, ptr noundef %3, ptr noundef %4, ptr noundef %5, i32 poison, ptr noundef nonnull align 8 dereferenceable(8) %7)
  br label %73

25:                                               ; preds = %18
  %26 = tail call align 4 ptr @llvm.threadlocal.address.p0(ptr align 4 @_ZN8LightGBM7Network5rank_E)
  %27 = load i32, ptr %26, align 4, !tbaa !69
  %28 = add nsw i32 %27, 1
  %29 = load i32, ptr %9, align 4, !tbaa !69
  %30 = srem i32 %28, %29
  %31 = add i32 %29, -1
  %32 = add i32 %31, %27
  %33 = srem i32 %32, %29
  %34 = icmp sgt i32 %29, 1
  br i1 %34, label %.lr.ph.i, label %_ZN8LightGBM7Network17ReduceScatterRingEPciiPKiS3_S1_iRKPFvPKcS1_iiE.exit

.lr.ph.i:                                         ; preds = %25
  %35 = add i32 %33, %31
  %36 = srem i32 %35, %29
  %37 = tail call align 8 ptr @llvm.threadlocal.address.p0(ptr align 8 @_ZN8LightGBM7Network8linkers_E)
  br label %38

._crit_edge.loopexit.i:                           ; preds = %38
  %.pre.i = load i32, ptr %26, align 4, !tbaa !69
  br label %_ZN8LightGBM7Network17ReduceScatterRingEPciiPKiS3_S1_iRKPFvPKcS1_iiE.exit

38:                                               ; preds = %38, %.lr.ph.i
  %.031.i = phi i32 [ 1, %.lr.ph.i ], [ %62, %38 ]
  %.02730.i = phi i32 [ %36, %.lr.ph.i ], [ %61, %38 ]
  %.02829.i = phi i32 [ %33, %.lr.ph.i ], [ %59, %38 ]
  tail call void @_ZTHN8LightGBM7Network8linkers_E()
  %39 = load ptr, ptr %37, align 8, !tbaa !4
  %40 = sext i32 %.02829.i to i64
  %41 = getelementptr inbounds i32, ptr %3, i64 %40
  %42 = load i32, ptr %41, align 4, !tbaa !69
  %43 = sext i32 %42 to i64
  %44 = getelementptr inbounds i8, ptr %0, i64 %43
  %45 = getelementptr inbounds i32, ptr %4, i64 %40
  %46 = load i32, ptr %45, align 4, !tbaa !69
  %47 = sext i32 %.02730.i to i64
  %48 = getelementptr inbounds i32, ptr %4, i64 %47
  %49 = load i32, ptr %48, align 4, !tbaa !69
  tail call void @_ZN8LightGBM7Linkers8SendRecvEiPciiS1_i(ptr noundef nonnull align 8 dereferenceable(304) %39, i32 noundef %30, ptr noundef %44, i32 noundef %46, i32 noundef %33, ptr noundef %5, i32 noundef %49)
  %50 = load ptr, ptr %7, align 8, !tbaa !119
  %51 = getelementptr inbounds i32, ptr %3, i64 %47
  %52 = load i32, ptr %51, align 4, !tbaa !69
  %53 = sext i32 %52 to i64
  %54 = getelementptr inbounds i8, ptr %0, i64 %53
  %55 = load i32, ptr %48, align 4, !tbaa !69
  tail call void %50(ptr noundef %5, ptr noundef %54, i32 noundef %2, i32 noundef %55)
  %56 = load i32, ptr %9, align 4, !tbaa !69
  %57 = add i32 %56, -1
  %58 = add i32 %57, %.02829.i
  %59 = srem i32 %58, %56
  %60 = add i32 %57, %.02730.i
  %61 = srem i32 %60, %56
  %62 = add nuw nsw i32 %.031.i, 1
  %63 = icmp slt i32 %62, %56
  br i1 %63, label %38, label %._crit_edge.loopexit.i, !llvm.loop !132

_ZN8LightGBM7Network17ReduceScatterRingEPciiPKiS3_S1_iRKPFvPKcS1_iiE.exit: ; preds = %25, %._crit_edge.loopexit.i
  %64 = phi i32 [ %.pre.i, %._crit_edge.loopexit.i ], [ %27, %25 ]
  %65 = sext i32 %64 to i64
  %66 = getelementptr inbounds i32, ptr %3, i64 %65
  %67 = load i32, ptr %66, align 4, !tbaa !69
  %68 = sext i32 %67 to i64
  %69 = getelementptr inbounds i8, ptr %0, i64 %68
  %70 = getelementptr inbounds i32, ptr %4, i64 %65
  %71 = load i32, ptr %70, align 4, !tbaa !69
  %72 = sext i32 %71 to i64
  tail call void @llvm.memcpy.p0.p0.i64(ptr align 1 %5, ptr align 1 %69, i64 %72, i1 false)
  br label %73

73:                                               ; preds = %24, %_ZN8LightGBM7Network17ReduceScatterRingEPciiPKiS3_S1_iRKPFvPKcS1_iiE.exit, %16
  ret void
}